target datalayout = "e-m:e-p270:32:32-p271:32:32-p272:64:64-i64:64-i128:128-f80:128-n8:16:32:64-S128"
target triple = "x86_64-pc-linux-gnu"

%"class.llvm::FoldingSetBase::Node" = type { ptr }
%"class.(anonymous namespace)::EquivalenceClass" = type { %"class.llvm::FoldingSetBase::Node", i64 }
%"class.llvm::ImmutableSet.639" = type { %"class.llvm::IntrusiveRefCntPtr.640" }
%"class.llvm::IntrusiveRefCntPtr.640" = type { ptr }
%"class.llvm::ImmutableSet<(anonymous namespace)::EquivalenceClass>::Factory" = type <{ %"class.llvm::ImutAVLFactory.602", i8, [7 x i8] }>
%"class.llvm::ImutAVLFactory.602" = type { %"class.llvm::DenseMap.603", i64, %"class.std::vector.606", %"class.std::vector.606" }
%"class.llvm::DenseMap.603" = type <{ ptr, i32, i32, i32, [4 x i8] }>
%"class.std::vector.606" = type { %"struct.std::_Vector_base.607" }
%"struct.std::_Vector_base.607" = type { %"struct.std::_Vector_base<llvm::ImutAVLTree<llvm::ImutContainerInfo<(anonymous namespace)::EquivalenceClass>> *, std::allocator<llvm::ImutAVLTree<llvm::ImutContainerInfo<(anonymous namespace)::EquivalenceClass>> *>>::_Vector_impl" }
%"struct.std::_Vector_base<llvm::ImutAVLTree<llvm::ImutContainerInfo<(anonymous namespace)::EquivalenceClass>> *, std::allocator<llvm::ImutAVLTree<llvm::ImutContainerInfo<(anonymous namespace)::EquivalenceClass>> *>>::_Vector_impl" = type { %"struct.std::_Vector_base<llvm::ImutAVLTree<llvm::ImutContainerInfo<(anonymous namespace)::EquivalenceClass>> *, std::allocator<llvm::ImutAVLTree<llvm::ImutContainerInfo<(anonymous namespace)::EquivalenceClass>> *>>::_Vector_impl_data" }
%"struct.std::_Vector_base<llvm::ImutAVLTree<llvm::ImutContainerInfo<(anonymous namespace)::EquivalenceClass>> *, std::allocator<llvm::ImutAVLTree<llvm::ImutContainerInfo<(anonymous namespace)::EquivalenceClass>> *>>::_Vector_impl_data" = type { ptr, ptr, ptr }
%"class.llvm::ImutAVLTree.653" = type { ptr, ptr, ptr, ptr, ptr, i32, %"class.(anonymous namespace)::EquivalenceClass", i32, i32 }

; Function Attrs: mustprogress nounwind uwtable
define internal void @_ZNSt12_Destroy_auxILb1EE9__destroyIPPN4llvm11ImutAVLTreeINS2_17ImutContainerInfoIN12_GLOBAL__N_116EquivalenceClassEEEEEEEvT_SB_(ptr noundef %0, ptr noundef %1) #1 align 2 {
  %3 = alloca ptr, align 8
  %4 = alloca ptr, align 8
  store ptr %0, ptr %3, align 8
  store ptr %1, ptr %4, align 8
  ret void
}

; Function Attrs: mustprogress nounwind uwtable
define internal void @_ZSt8_DestroyIPPN4llvm11ImutAVLTreeINS0_17ImutContainerInfoIN12_GLOBAL__N_116EquivalenceClassEEEEEEvT_S9_(ptr noundef %0, ptr noundef %1) #1 {
  %3 = alloca ptr, align 8
  %4 = alloca ptr, align 8
  store ptr %0, ptr %3, align 8
  store ptr %1, ptr %4, align 8
  %5 = load ptr, ptr %3, align 8
  %6 = load ptr, ptr %4, align 8
  call void @_ZNSt12_Destroy_auxILb1EE9__destroyIPPN4llvm11ImutAVLTreeINS2_17ImutContainerInfoIN12_GLOBAL__N_116EquivalenceClassEEEEEEEvT_SB_(ptr noundef %5, ptr noundef %6)
  ret void
}

; Function Attrs: mustprogress nounwind uwtable
define internal void @_ZN4llvm11ImutAVLTreeINS_17ImutContainerInfoIN12_GLOBAL__N_116EquivalenceClassEEEE6retainEv(ptr noundef nonnull align 8 dereferenceable(72) %0) #1 align 2 {
  %2 = alloca ptr, align 8
  store ptr %0, ptr %2, align 8
  %3 = load ptr, ptr %2, align 8
  %4 = getelementptr inbounds nuw %"class.llvm::ImutAVLTree.653", ptr %3, i32 0, i32 8
  %5 = load i32, ptr %4, align 4
  %6 = add i32 %5, 1
  store i32 %6, ptr %4, align 4
  ret void
}

; Function Attrs: mustprogress nounwind uwtable
define internal void @_ZSt8_DestroyIPPN4llvm11ImutAVLTreeINS0_17ImutContainerInfoIN12_GLOBAL__N_116EquivalenceClassEEEEES7_EvT_S9_RSaIT0_E(ptr noundef %0, ptr noundef %1, ptr noundef nonnull align 1 dereferenceable(1) %2) #1 {
  %4 = alloca ptr, align 8
  %5 = alloca ptr, align 8
  %6 = alloca ptr, align 8
  store ptr %0, ptr %4, align 8
  store ptr %1, ptr %5, align 8
  store ptr %2, ptr %6, align 8
  %7 = load ptr, ptr %4, align 8
  %8 = load ptr, ptr %5, align 8
  call void @_ZSt8_DestroyIPPN4llvm11ImutAVLTreeINS0_17ImutContainerInfoIN12_GLOBAL__N_116EquivalenceClassEEEEEEvT_S9_(ptr noundef %7, ptr noundef %8)
  ret void
}

; Function Attrs: mustprogress nounwind uwtable
define internal noundef nonnull align 1 dereferenceable(1) ptr @_ZNSt12_Vector_baseIPN4llvm11ImutAVLTreeINS0_17ImutContainerInfoIN12_GLOBAL__N_116EquivalenceClassEEEEESaIS7_EE19_M_get_Tp_allocatorEv(ptr noundef nonnull align 8 dereferenceable(24) %0) #1 align 2 {
  %2 = alloca ptr, align 8
  store ptr %0, ptr %2, align 8
  %3 = load ptr, ptr %2, align 8
  %4 = getelementptr inbounds nuw %"struct.std::_Vector_base.607", ptr %3, i32 0, i32 0
  ret ptr %4
}

; Function Attrs: mustprogress nounwind uwtable
define internal void @_ZN4llvm22IntrusiveRefCntPtrInfoINS_11ImutAVLTreeINS_17ImutContainerInfoIN12_GLOBAL__N_116EquivalenceClassEEEEEE6retainEPS6_(ptr noundef %0) #1 align 2 {
  %2 = alloca ptr, align 8
  store ptr %0, ptr %2, align 8
  %3 = load ptr, ptr %2, align 8
  call void @_ZN4llvm11ImutAVLTreeINS_17ImutContainerInfoIN12_GLOBAL__N_116EquivalenceClassEEEE6retainEv(ptr noundef nonnull align 8 dereferenceable(72) %3)
  ret void
}

; Function Attrs: mustprogress nounwind uwtable
define internal void @_ZNSt6vectorIPN4llvm11ImutAVLTreeINS0_17ImutContainerInfoIN12_GLOBAL__N_116EquivalenceClassEEEEESaIS7_EE15_M_erase_at_endEPS7_(ptr noundef nonnull align 8 dereferenceable(24) %0, ptr noundef %1) #1 align 2 {
  %3 = alloca ptr, align 8
  %4 = alloca ptr, align 8
  %5 = alloca i64, align 8
  store ptr %0, ptr %3, align 8
  store ptr %1, ptr %4, align 8
  %6 = load ptr, ptr %3, align 8
  %7 = getelementptr inbounds nuw %"struct.std::_Vector_base.607", ptr %6, i32 0, i32 0
  %8 = getelementptr inbounds nuw %"struct.std::_Vector_base<llvm::ImutAVLTree<llvm::ImutContainerInfo<(anonymous namespace)::EquivalenceClass>> *, std::allocator<llvm::ImutAVLTree<llvm::ImutContainerInfo<(anonymous namespace)::EquivalenceClass>> *>>::_Vector_impl_data", ptr %7, i32 0, i32 1
  %9 = load ptr, ptr %8, align 8
  %10 = load ptr, ptr %4, align 8
  %11 = ptrtoint ptr %9 to i64
  %12 = ptrtoint ptr %10 to i64
  %13 = sub i64 %11, %12
  %14 = sdiv exact i64 %13, 8
  store i64 %14, ptr %5, align 8
  %15 = load i64, ptr %5, align 8
  %16 = icmp ne i64 %15, 0
  br i1 %16, label %17, label %26

17:                                               ; preds = %2
  %18 = load ptr, ptr %4, align 8
  %19 = getelementptr inbounds nuw %"struct.std::_Vector_base.607", ptr %6, i32 0, i32 0
  %20 = getelementptr inbounds nuw %"struct.std::_Vector_base<llvm::ImutAVLTree<llvm::ImutContainerInfo<(anonymous namespace)::EquivalenceClass>> *, std::allocator<llvm::ImutAVLTree<llvm::ImutContainerInfo<(anonymous namespace)::EquivalenceClass>> *>>::_Vector_impl_data", ptr %19, i32 0, i32 1
  %21 = load ptr, ptr %20, align 8
  %22 = call noundef nonnull align 1 dereferenceable(1) ptr @_ZNSt12_Vector_baseIPN4llvm11ImutAVLTreeINS0_17ImutContainerInfoIN12_GLOBAL__N_116EquivalenceClassEEEEESaIS7_EE19_M_get_Tp_allocatorEv(ptr noundef nonnull align 8 dereferenceable(24) %6) #3
  call void @_ZSt8_DestroyIPPN4llvm11ImutAVLTreeINS0_17ImutContainerInfoIN12_GLOBAL__N_116EquivalenceClassEEEEES7_EvT_S9_RSaIT0_E(ptr noundef %18, ptr noundef %21, ptr noundef nonnull align 1 dereferenceable(1) %22)
  %23 = load ptr, ptr %4, align 8
  %24 = getelementptr inbounds nuw %"struct.std::_Vector_base.607", ptr %6, i32 0, i32 0
  %25 = getelementptr inbounds nuw %"struct.std::_Vector_base<llvm::ImutAVLTree<llvm::ImutContainerInfo<(anonymous namespace)::EquivalenceClass>> *, std::allocator<llvm::ImutAVLTree<llvm::ImutContainerInfo<(anonymous namespace)::EquivalenceClass>> *>>::_Vector_impl_data", ptr %24, i32 0, i32 1
  store ptr %23, ptr %25, align 8
  br label %26

26:                                               ; preds = %17, %2
  ret void
}

; Function Attrs: mustprogress nounwind uwtable
define internal void @_ZN4llvm18IntrusiveRefCntPtrINS_11ImutAVLTreeINS_17ImutContainerInfoIN12_GLOBAL__N_116EquivalenceClassEEEEEE6retainEv(ptr noundef nonnull align 8 dereferenceable(8) %0) #1 align 2 {
  %2 = alloca ptr, align 8
  store ptr %0, ptr %2, align 8
  %3 = load ptr, ptr %2, align 8
  %4 = getelementptr inbounds nuw %"class.llvm::IntrusiveRefCntPtr.640", ptr %3, i32 0, i32 0
  %5 = load ptr, ptr %4, align 8
  %6 = icmp ne ptr %5, null
  br i1 %6, label %7, label %10

7:                                                ; preds = %1
  %8 = getelementptr inbounds nuw %"class.llvm::IntrusiveRefCntPtr.640", ptr %3, i32 0, i32 0
  %9 = load ptr, ptr %8, align 8
  call void @_ZN4llvm22IntrusiveRefCntPtrInfoINS_11ImutAVLTreeINS_17ImutContainerInfoIN12_GLOBAL__N_116EquivalenceClassEEEEEE6retainEPS6_(ptr noundef %9)
  br label %10

10:                                               ; preds = %7, %1
  ret void
}

; Function Attrs: mustprogress nounwind uwtable
define internal void @_ZNSt6vectorIPN4llvm11ImutAVLTreeINS0_17ImutContainerInfoIN12_GLOBAL__N_116EquivalenceClassEEEEESaIS7_EE5clearEv(ptr noundef nonnull align 8 dereferenceable(24) %0) #1 align 2 {
  %2 = alloca ptr, align 8
  store ptr %0, ptr %2, align 8
  %3 = load ptr, ptr %2, align 8
  %4 = getelementptr inbounds nuw %"struct.std::_Vector_base.607", ptr %3, i32 0, i32 0
  %5 = getelementptr inbounds nuw %"struct.std::_Vector_base<llvm::ImutAVLTree<llvm::ImutContainerInfo<(anonymous namespace)::EquivalenceClass>> *, std::allocator<llvm::ImutAVLTree<llvm::ImutContainerInfo<(anonymous namespace)::EquivalenceClass>> *>>::_Vector_impl_data", ptr %4, i32 0, i32 0
  %6 = load ptr, ptr %5, align 8
  call void @_ZNSt6vectorIPN4llvm11ImutAVLTreeINS0_17ImutContainerInfoIN12_GLOBAL__N_116EquivalenceClassEEEEESaIS7_EE15_M_erase_at_endEPS7_(ptr noundef nonnull align 8 dereferenceable(24) %3, ptr noundef %6) #3
  ret void
}

; Function Attrs: mustprogress nounwind uwtable
define internal noundef zeroext i1 @_ZNK4llvm11ImutAVLTreeINS_17ImutContainerInfoIN12_GLOBAL__N_116EquivalenceClassEEEE9isMutableEv(ptr noundef nonnull align 8 dereferenceable(72) %0) #1 align 2 {
  %2 = alloca ptr, align 8
  store ptr %0, ptr %2, align 8
  %3 = load ptr, ptr %2, align 8
  %4 = getelementptr inbounds nuw %"class.llvm::ImutAVLTree.653", ptr %3, i32 0, i32 5
  %5 = load i32, ptr %4, align 8
  %6 = lshr i32 %5, 28
  %7 = and i32 %6, 1
  %8 = trunc i32 %7 to i1
  ret i1 %8
}

; Function Attrs: mustprogress nounwind uwtable
define internal noundef nonnull align 8 dereferenceable(8) ptr @_ZNSt6vectorIPN4llvm11ImutAVLTreeINS0_17ImutContainerInfoIN12_GLOBAL__N_116EquivalenceClassEEEEESaIS7_EEixEm(ptr noundef nonnull align 8 dereferenceable(24) %0, i64 noundef %1) #1 align 2 {
  %3 = alloca ptr, align 8
  %4 = alloca i64, align 8
  store ptr %0, ptr %3, align 8
  store i64 %1, ptr %4, align 8
  %5 = load ptr, ptr %3, align 8
  %6 = getelementptr inbounds nuw %"struct.std::_Vector_base.607", ptr %5, i32 0, i32 0
  %7 = getelementptr inbounds nuw %"struct.std::_Vector_base<llvm::ImutAVLTree<llvm::ImutContainerInfo<(anonymous namespace)::EquivalenceClass>> *, std::allocator<llvm::ImutAVLTree<llvm::ImutContainerInfo<(anonymous namespace)::EquivalenceClass>> *>>::_Vector_impl_data", ptr %6, i32 0, i32 0
  %8 = load ptr, ptr %7, align 8
  %9 = load i64, ptr %4, align 8
  %10 = getelementptr inbounds ptr, ptr %8, i64 %9
  ret ptr %10
}

; Function Attrs: mustprogress nounwind uwtable
define internal noundef i64 @_ZNKSt6vectorIPN4llvm11ImutAVLTreeINS0_17ImutContainerInfoIN12_GLOBAL__N_116EquivalenceClassEEEEESaIS7_EE4sizeEv(ptr noundef nonnull align 8 dereferenceable(24) %0) #1 align 2 {
  %2 = alloca ptr, align 8
  store ptr %0, ptr %2, align 8
  %3 = load ptr, ptr %2, align 8
  %4 = getelementptr inbounds nuw %"struct.std::_Vector_base.607", ptr %3, i32 0, i32 0
  %5 = getelementptr inbounds nuw %"struct.std::_Vector_base<llvm::ImutAVLTree<llvm::ImutContainerInfo<(anonymous namespace)::EquivalenceClass>> *, std::allocator<llvm::ImutAVLTree<llvm::ImutContainerInfo<(anonymous namespace)::EquivalenceClass>> *>>::_Vector_impl_data", ptr %4, i32 0, i32 1
  %6 = load ptr, ptr %5, align 8
  %7 = getelementptr inbounds nuw %"struct.std::_Vector_base.607", ptr %3, i32 0, i32 0
  %8 = getelementptr inbounds nuw %"struct.std::_Vector_base<llvm::ImutAVLTree<llvm::ImutContainerInfo<(anonymous namespace)::EquivalenceClass>> *, std::allocator<llvm::ImutAVLTree<llvm::ImutContainerInfo<(anonymous namespace)::EquivalenceClass>> *>>::_Vector_impl_data", ptr %7, i32 0, i32 0
  %9 = load ptr, ptr %8, align 8
  %10 = ptrtoint ptr %6 to i64
  %11 = ptrtoint ptr %9 to i64
  %12 = sub i64 %10, %11
  %13 = sdiv exact i64 %12, 8
  ret i64 %13
}

; Function Attrs: mustprogress nounwind uwtable
define internal void @_ZN4llvm18IntrusiveRefCntPtrINS_11ImutAVLTreeINS_17ImutContainerInfoIN12_GLOBAL__N_116EquivalenceClassEEEEEEC2EPS6_(ptr noundef nonnull align 8 dereferenceable(8) %0, ptr noundef %1) unnamed_addr #1 align 2 {
  %3 = alloca ptr, align 8
  %4 = alloca ptr, align 8
  store ptr %0, ptr %3, align 8
  store ptr %1, ptr %4, align 8
  %5 = load ptr, ptr %3, align 8
  %6 = getelementptr inbounds nuw %"class.llvm::IntrusiveRefCntPtr.640", ptr %5, i32 0, i32 0
  %7 = load ptr, ptr %4, align 8
  store ptr %7, ptr %6, align 8
  call void @_ZN4llvm18IntrusiveRefCntPtrINS_11ImutAVLTreeINS_17ImutContainerInfoIN12_GLOBAL__N_116EquivalenceClassEEEEEE6retainEv(ptr noundef nonnull align 8 dereferenceable(8) %5)
  ret void
}

; Function Attrs: mustprogress nounwind uwtable
define internal void @_ZN4llvm14ImutAVLFactoryINS_17ImutContainerInfoIN12_GLOBAL__N_116EquivalenceClassEEEE12recoverNodesEv(ptr noundef nonnull align 8 dereferenceable(80) %0) #1 align 2 {
  %2 = alloca ptr, align 8
  %3 = alloca i32, align 4
  %4 = alloca i32, align 4
  %5 = alloca ptr, align 8
  store ptr %0, ptr %2, align 8
  %6 = load ptr, ptr %2, align 8
  store i32 0, ptr %3, align 4
  %7 = getelementptr inbounds nuw %"class.llvm::ImutAVLFactory.602", ptr %6, i32 0, i32 2
  %8 = call noundef i64 @_ZNKSt6vectorIPN4llvm11ImutAVLTreeINS0_17ImutContainerInfoIN12_GLOBAL__N_116EquivalenceClassEEEEESaIS7_EE4sizeEv(ptr noundef nonnull align 8 dereferenceable(24) %7) #3
  %9 = trunc i64 %8 to i32
  store i32 %9, ptr %4, align 4
  br label %10

10:                                               ; preds = %30, %1
  %11 = load i32, ptr %3, align 4
  %12 = load i32, ptr %4, align 4
  %13 = icmp ult i32 %11, %12
  br i1 %13, label %14, label %33

14:                                               ; preds = %10
  %15 = getelementptr inbounds nuw %"class.llvm::ImutAVLFactory.602", ptr %6, i32 0, i32 2
  %16 = load i32, ptr %3, align 4
  %17 = zext i32 %16 to i64
  %18 = call noundef nonnull align 8 dereferenceable(8) ptr @_ZNSt6vectorIPN4llvm11ImutAVLTreeINS0_17ImutContainerInfoIN12_GLOBAL__N_116EquivalenceClassEEEEESaIS7_EEixEm(ptr noundef nonnull align 8 dereferenceable(24) %15, i64 noundef %17) #3
  %19 = load ptr, ptr %18, align 8
  store ptr %19, ptr %5, align 8
  %20 = load ptr, ptr %5, align 8
  %21 = call noundef zeroext i1 @_ZNK4llvm11ImutAVLTreeINS_17ImutContainerInfoIN12_GLOBAL__N_116EquivalenceClassEEEE9isMutableEv(ptr noundef nonnull align 8 dereferenceable(72) %20)
  br i1 %21, label %22, label %29

22:                                               ; preds = %14
  %23 = load ptr, ptr %5, align 8
  %24 = getelementptr inbounds nuw %"class.llvm::ImutAVLTree.653", ptr %23, i32 0, i32 8
  %25 = load i32, ptr %24, align 4
  %26 = icmp eq i32 %25, 0
  br i1 %26, label %27, label %29

27:                                               ; preds = %22
  %28 = load ptr, ptr %5, align 8
  call void @_ZN4llvm11ImutAVLTreeINS_17ImutContainerInfoIN12_GLOBAL__N_116EquivalenceClassEEEE7destroyEv(ptr noundef nonnull align 8 dereferenceable(72) %28)
  br label %29

29:                                               ; preds = %27, %22, %14
  br label %30

30:                                               ; preds = %29
  %31 = load i32, ptr %3, align 4
  %32 = add i32 %31, 1
  store i32 %32, ptr %3, align 4
  br label %10, !llvm.loop !82

33:                                               ; preds = %10
  %34 = getelementptr inbounds nuw %"class.llvm::ImutAVLFactory.602", ptr %6, i32 0, i32 2
  call void @_ZNSt6vectorIPN4llvm11ImutAVLTreeINS0_17ImutContainerInfoIN12_GLOBAL__N_116EquivalenceClassEEEEESaIS7_EE5clearEv(ptr noundef nonnull align 8 dereferenceable(24) %34) #3
  ret void
}

; Function Attrs: mustprogress nounwind uwtable
define internal void @_ZN4llvm12ImmutableSetIN12_GLOBAL__N_116EquivalenceClassENS_17ImutContainerInfoIS2_EEEC2EPNS_11ImutAVLTreeIS4_EE(ptr noundef nonnull align 8 dereferenceable(8) %0, ptr noundef %1) unnamed_addr #1 align 2 {
  %3 = alloca ptr, align 8
  %4 = alloca ptr, align 8
  store ptr %0, ptr %3, align 8
  store ptr %1, ptr %4, align 8
  %5 = load ptr, ptr %3, align 8
  %6 = getelementptr inbounds nuw %"class.llvm::ImmutableSet.639", ptr %5, i32 0, i32 0
  %7 = load ptr, ptr %4, align 8
  call void @_ZN4llvm18IntrusiveRefCntPtrINS_11ImutAVLTreeINS_17ImutContainerInfoIN12_GLOBAL__N_116EquivalenceClassEEEEEEC2EPS6_(ptr noundef nonnull align 8 dereferenceable(8) %6, ptr noundef %7)
  ret void
}

; Function Attrs: mustprogress nounwind uwtable
define internal noundef ptr @_ZN4llvm14ImutAVLFactoryINS_17ImutContainerInfoIN12_GLOBAL__N_116EquivalenceClassEEEE6removeEPNS_11ImutAVLTreeIS4_EERKS3_(ptr noundef nonnull align 8 dereferenceable(80) %0, ptr noundef %1, ptr noundef nonnull align 8 dereferenceable(16) %2) #1 align 2 {
  %4 = alloca ptr, align 8
  %5 = alloca ptr, align 8
  %6 = alloca ptr, align 8
  store ptr %0, ptr %4, align 8
  store ptr %1, ptr %5, align 8
  store ptr %2, ptr %6, align 8
  %7 = load ptr, ptr %4, align 8
  %8 = load ptr, ptr %6, align 8
  %9 = load ptr, ptr %5, align 8
  %10 = call noundef ptr @_ZN4llvm14ImutAVLFactoryINS_17ImutContainerInfoIN12_GLOBAL__N_116EquivalenceClassEEEE15remove_internalERKS3_PNS_11ImutAVLTreeIS4_EE(ptr noundef nonnull align 8 dereferenceable(80) %7, ptr noundef nonnull align 8 dereferenceable(16) %8, ptr noundef %9)
  store ptr %10, ptr %5, align 8
  %11 = load ptr, ptr %5, align 8
  call void @_ZN4llvm14ImutAVLFactoryINS_17ImutContainerInfoIN12_GLOBAL__N_116EquivalenceClassEEEE13markImmutableEPNS_11ImutAVLTreeIS4_EE(ptr noundef nonnull align 8 dereferenceable(80) %7, ptr noundef %11)
  call void @_ZN4llvm14ImutAVLFactoryINS_17ImutContainerInfoIN12_GLOBAL__N_116EquivalenceClassEEEE12recoverNodesEv(ptr noundef nonnull align 8 dereferenceable(80) %7)
  %12 = load ptr, ptr %5, align 8
  ret ptr %12
}

; Function Attrs: mustprogress nounwind uwtable
define internal noundef ptr @_ZNK4llvm18IntrusiveRefCntPtrINS_11ImutAVLTreeINS_17ImutContainerInfoIN12_GLOBAL__N_116EquivalenceClassEEEEEE3getEv(ptr noundef nonnull align 8 dereferenceable(8) %0) #1 align 2 {
  %2 = alloca ptr, align 8
  store ptr %0, ptr %2, align 8
  %3 = load ptr, ptr %2, align 8
  %4 = getelementptr inbounds nuw %"class.llvm::IntrusiveRefCntPtr.640", ptr %3, i32 0, i32 0
  %5 = load ptr, ptr %4, align 8
  ret ptr %5
}

; Function Attrs: mustprogress nounwind uwtable
define internal void @_ZN4llvm12ImmutableSetIN12_GLOBAL__N_116EquivalenceClassENS_17ImutContainerInfoIS2_EEE7Factory6removeES5_RKS2_(ptr dead_on_unwind noalias writable sret(%"class.llvm::ImmutableSet.639") align 8 %0, ptr noundef nonnull align 8 dereferenceable(81) %1, ptr noundef %2, ptr noundef nonnull align 8 dereferenceable(16) %3) #1 align 2 {
  %5 = alloca ptr, align 8
  %6 = alloca ptr, align 8
  %7 = alloca ptr, align 8
  %8 = alloca ptr, align 8
  %9 = alloca ptr, align 8
  store ptr %0, ptr %5, align 8
  store ptr %1, ptr %6, align 8
  store ptr %2, ptr %7, align 8
  store ptr %3, ptr %8, align 8
  %10 = load ptr, ptr %6, align 8
  %11 = getelementptr inbounds nuw %"class.llvm::ImmutableSet<(anonymous namespace)::EquivalenceClass>::Factory", ptr %10, i32 0, i32 0
  %12 = getelementptr inbounds nuw %"class.llvm::ImmutableSet.639", ptr %2, i32 0, i32 0
  %13 = call noundef ptr @_ZNK4llvm18IntrusiveRefCntPtrINS_11ImutAVLTreeINS_17ImutContainerInfoIN12_GLOBAL__N_116EquivalenceClassEEEEEE3getEv(ptr noundef nonnull align 8 dereferenceable(8) %12)
  %14 = load ptr, ptr %8, align 8
  %15 = call noundef ptr @_ZN4llvm14ImutAVLFactoryINS_17ImutContainerInfoIN12_GLOBAL__N_116EquivalenceClassEEEE6removeEPNS_11ImutAVLTreeIS4_EERKS3_(ptr noundef nonnull align 8 dereferenceable(80) %11, ptr noundef %13, ptr noundef nonnull align 8 dereferenceable(16) %14)
  store ptr %15, ptr %9, align 8
  %16 = getelementptr inbounds nuw %"class.llvm::ImmutableSet<(anonymous namespace)::EquivalenceClass>::Factory", ptr %10, i32 0, i32 1
  %17 = load i8, ptr %16, align 8
  %18 = trunc i8 %17 to i1
  br i1 %18, label %19, label %23

19:                                               ; preds = %4
  %20 = getelementptr inbounds nuw %"class.llvm::ImmutableSet<(anonymous namespace)::EquivalenceClass>::Factory", ptr %10, i32 0, i32 0
  %21 = load ptr, ptr %9, align 8
  %22 = call noundef ptr @_ZN4llvm14ImutAVLFactoryINS_17ImutContainerInfoIN12_GLOBAL__N_116EquivalenceClassEEEE16getCanonicalTreeEPNS_11ImutAVLTreeIS4_EE(ptr noundef nonnull align 8 dereferenceable(80) %20, ptr noundef %21)
  br label %25

23:                                               ; preds = %4
  %24 = load ptr, ptr %9, align 8
  br label %25

25:                                               ; preds = %23, %19
  %26 = phi ptr [ %22, %19 ], [ %24, %23 ]
  call void @_ZN4llvm12ImmutableSetIN12_GLOBAL__N_116EquivalenceClassENS_17ImutContainerInfoIS2_EEEC2EPNS_11ImutAVLTreeIS4_EE(ptr noundef nonnull align 8 dereferenceable(8) %0, ptr noundef %26)
  ret void
}