; Function Attrs: mustprogress nounwind uwtable
define internal fastcc void @_ZN4llvm12ImmutableSetIN12_GLOBAL__N_116EquivalenceClassENS_17ImutContainerInfoIS2_EEE7Factory6removeES5_RKS2_(ptr dead_on_unwind noalias nocapture writable writeonly align 8 %0, ptr noundef nonnull align 8 dereferenceable(81) %1, ptr %.0.val, i64 %.8.val) unnamed_addr #1 align 2 {
  %3 = tail call fastcc noundef ptr @_ZN4llvm14ImutAVLFactoryINS_17ImutContainerInfoIN12_GLOBAL__N_116EquivalenceClassEEEE15remove_internalERKS3_PNS_11ImutAVLTreeIS4_EE(ptr noundef nonnull align 8 dereferenceable(80) %1, i64 %.8.val, ptr noundef %.0.val)
  tail call fastcc void @_ZN4llvm14ImutAVLFactoryINS_17ImutContainerInfoIN12_GLOBAL__N_116EquivalenceClassEEEE13markImmutableEPNS_11ImutAVLTreeIS4_EE(ptr noundef %3)
  %4 = getelementptr inbounds nuw i8, ptr %1, i64 32
  %.val.i.i = load ptr, ptr %4, align 8
  %5 = getelementptr inbounds i8, ptr %1, i64 40
  %.val7.i.i = load ptr, ptr %5, align 8
  %6 = ptrtoint ptr %.val7.i.i to i64
  %7 = ptrtoint ptr %.val.i.i to i64
  %8 = sub i64 %6, %7
  %9 = and i64 %8, 34359738360
  %.not11.i.i = icmp eq i64 %9, 0
  br i1 %.not11.i.i, label %._crit_edge.i.i, label %.lr.ph.preheader.i.i

.lr.ph.preheader.i.i:                             ; preds = %2
  %10 = lshr exact i64 %8, 3
  %wide.trip.count.i.i = and i64 %10, 4294967295
  br label %.lr.ph.i.i

.lr.ph.i.i:                                       ; preds = %20, %.lr.ph.preheader.i.i
  %indvars.iv.i.i = phi i64 [ 0, %.lr.ph.preheader.i.i ], [ %indvars.iv.next.i.i, %20 ]
  %.val9.i.i = load ptr, ptr %4, align 8
  %11 = getelementptr inbounds ptr, ptr %.val9.i.i, i64 %indvars.iv.i.i
  %12 = load ptr, ptr %11, align 8
  %13 = getelementptr i8, ptr %12, i64 40
  %.val8.i.i = load i32, ptr %13, align 8
  %14 = and i32 %.val8.i.i, 268435456
  %.not.i.i = icmp eq i32 %14, 0
  br i1 %.not.i.i, label %20, label %15

15:                                               ; preds = %.lr.ph.i.i
  %16 = getelementptr inbounds nuw i8, ptr %12, i64 68
  %17 = load i32, ptr %16, align 4
  %18 = icmp eq i32 %17, 0
  br i1 %18, label %19, label %20

19:                                               ; preds = %15
  tail call fastcc void @_ZN4llvm11ImutAVLTreeINS_17ImutContainerInfoIN12_GLOBAL__N_116EquivalenceClassEEEE7destroyEv(ptr noundef nonnull align 8 dereferenceable(72) %12)
  br label %20

20:                                               ; preds = %19, %15, %.lr.ph.i.i
  %indvars.iv.next.i.i = add nuw nsw i64 %indvars.iv.i.i, 1
  %exitcond.not.i.i = icmp eq i64 %indvars.iv.next.i.i, %wide.trip.count.i.i
  br i1 %exitcond.not.i.i, label %._crit_edge.loopexit.i.i, label %.lr.ph.i.i, !llvm.loop !652

._crit_edge.loopexit.i.i:                         ; preds = %20
  %.pre.i.i = load ptr, ptr %4, align 8
  %.pre13.i.i = load ptr, ptr %5, align 8
  br label %._crit_edge.i.i

._crit_edge.i.i:                                  ; preds = %._crit_edge.loopexit.i.i, %2
  %21 = phi ptr [ %.pre13.i.i, %._crit_edge.loopexit.i.i ], [ %.val7.i.i, %2 ]
  %22 = phi ptr [ %.pre.i.i, %._crit_edge.loopexit.i.i ], [ %.val.i.i, %2 ]
  %.not.i.i.i.i = icmp eq ptr %21, %22
  br i1 %.not.i.i.i.i, label %_ZN4llvm14ImutAVLFactoryINS_17ImutContainerInfoIN12_GLOBAL__N_116EquivalenceClassEEEE6removeEPNS_11ImutAVLTreeIS4_EERKS3_.exit, label %23

23:                                               ; preds = %._crit_edge.i.i
  store ptr %22, ptr %5, align 8
  br label %_ZN4llvm14ImutAVLFactoryINS_17ImutContainerInfoIN12_GLOBAL__N_116EquivalenceClassEEEE6removeEPNS_11ImutAVLTreeIS4_EERKS3_.exit

_ZN4llvm14ImutAVLFactoryINS_17ImutContainerInfoIN12_GLOBAL__N_116EquivalenceClassEEEE6removeEPNS_11ImutAVLTreeIS4_EERKS3_.exit: ; preds = %._crit_edge.i.i, %23
  %24 = getelementptr inbounds nuw i8, ptr %1, i64 80
  %25 = load i8, ptr %24, align 8
  %26 = trunc i8 %25 to i1
  br i1 %26, label %27, label %29

27:                                               ; preds = %_ZN4llvm14ImutAVLFactoryINS_17ImutContainerInfoIN12_GLOBAL__N_116EquivalenceClassEEEE6removeEPNS_11ImutAVLTreeIS4_EERKS3_.exit
  %28 = tail call fastcc noundef ptr @_ZN4llvm14ImutAVLFactoryINS_17ImutContainerInfoIN12_GLOBAL__N_116EquivalenceClassEEEE16getCanonicalTreeEPNS_11ImutAVLTreeIS4_EE(ptr noundef nonnull align 8 dereferenceable(80) %1, ptr noundef %3)
  br label %29

29:                                               ; preds = %_ZN4llvm14ImutAVLFactoryINS_17ImutContainerInfoIN12_GLOBAL__N_116EquivalenceClassEEEE6removeEPNS_11ImutAVLTreeIS4_EERKS3_.exit, %27
  %30 = phi ptr [ %28, %27 ], [ %3, %_ZN4llvm14ImutAVLFactoryINS_17ImutContainerInfoIN12_GLOBAL__N_116EquivalenceClassEEEE6removeEPNS_11ImutAVLTreeIS4_EERKS3_.exit ]
  store ptr %30, ptr %0, align 8
  %.not.i.i.i = icmp eq ptr %30, null
  br i1 %.not.i.i.i, label %_ZN4llvm12ImmutableSetIN12_GLOBAL__N_116EquivalenceClassENS_17ImutContainerInfoIS2_EEEC2EPNS_11ImutAVLTreeIS4_EE.exit, label %31

31:                                               ; preds = %29
  %32 = getelementptr inbounds nuw i8, ptr %30, i64 68
  %33 = load i32, ptr %32, align 4
  %34 = add i32 %33, 1
  store i32 %34, ptr %32, align 4
  br label %_ZN4llvm12ImmutableSetIN12_GLOBAL__N_116EquivalenceClassENS_17ImutContainerInfoIS2_EEEC2EPNS_11ImutAVLTreeIS4_EE.exit

_ZN4llvm12ImmutableSetIN12_GLOBAL__N_116EquivalenceClassENS_17ImutContainerInfoIS2_EEEC2EPNS_11ImutAVLTreeIS4_EE.exit: ; preds = %29, %31
  ret void
}